target datalayout = "e-m:e-p270:32:32-p271:32:32-p272:64:64-i64:64-i128:128-f80:128-n8:16:32:64-S128"
target triple = "x86_64-pc-linux-gnu"

%struct.DdManager = type { %struct.DdNode, ptr, ptr, ptr, ptr, ptr, ptr, ptr, i32, i32, double, double, double, i32, i32, i32, i32, i32, i32, ptr, ptr, %struct.DdSubtable, i32, i32, i32, i32, i32, i32, i32, double, i32, i32, i32, ptr, i64, double, i32, ptr, ptr, ptr, ptr, ptr, ptr, ptr, i32, ptr, ptr, ptr, ptr, ptr, ptr, i32, i32, i32, double, i32, i32, i32, i32, double, double, i32, i32, i32, i32, i32, i32, i32, i32, i32, ptr, ptr, i32, i32, i32, i32, i32, i32, ptr, ptr, ptr, ptr, ptr, ptr, ptr, ptr, i32, i64, i64, i64, i32, i64, i64, double, double, double, double, double, double, i32, ptr, ptr, i64 }
%struct.DdNode = type { i32, i32, ptr, %union.anon, i64 }
%union.anon = type { %struct.DdChildren }
%struct.DdChildren = type { ptr, ptr }
%struct.DdSubtable = type { ptr, i32, i32, i32, i32, i32, i32, i32, i32, i32, i32, i32 }
%struct.Extra_ImageTree2_t_ = type { ptr, ptr, ptr, ptr }

; Function Attrs: nounwind uwtable
define ptr @Extra_bddImageCompute2(ptr noundef %0, ptr noundef %1) #0 {
  %3 = alloca ptr, align 8
  %4 = alloca ptr, align 8
  store ptr %0, ptr %3, align 8, !tbaa !91
  store ptr %1, ptr %4, align 8, !tbaa !8
  %5 = load ptr, ptr %3, align 8, !tbaa !91
  %6 = getelementptr inbounds nuw %struct.Extra_ImageTree2_t_, ptr %5, i32 0, i32 3
  %7 = load ptr, ptr %6, align 8, !tbaa !95
  %8 = icmp ne ptr %7, null
  br i1 %8, label %9, label %16

9:                                                ; preds = %2
  %10 = load ptr, ptr %3, align 8, !tbaa !91
  %11 = getelementptr inbounds nuw %struct.Extra_ImageTree2_t_, ptr %10, i32 0, i32 0
  %12 = load ptr, ptr %11, align 8, !tbaa !93
  %13 = load ptr, ptr %3, align 8, !tbaa !91
  %14 = getelementptr inbounds nuw %struct.Extra_ImageTree2_t_, ptr %13, i32 0, i32 3
  %15 = load ptr, ptr %14, align 8, !tbaa !95
  call void @Cudd_RecursiveDeref(ptr noundef %12, ptr noundef %15)
  br label %16

16:                                               ; preds = %9, %2
  %17 = load ptr, ptr %3, align 8, !tbaa !91
  %18 = getelementptr inbounds nuw %struct.Extra_ImageTree2_t_, ptr %17, i32 0, i32 0
  %19 = load ptr, ptr %18, align 8, !tbaa !93
  %20 = load ptr, ptr %3, align 8, !tbaa !91
  %21 = getelementptr inbounds nuw %struct.Extra_ImageTree2_t_, ptr %20, i32 0, i32 1
  %22 = load ptr, ptr %21, align 8, !tbaa !97
  %23 = load ptr, ptr %4, align 8, !tbaa !8
  %24 = load ptr, ptr %3, align 8, !tbaa !91
  %25 = getelementptr inbounds nuw %struct.Extra_ImageTree2_t_, ptr %24, i32 0, i32 2
  %26 = load ptr, ptr %25, align 8, !tbaa !96
  %27 = call ptr @Cudd_bddAndAbstract(ptr noundef %19, ptr noundef %22, ptr noundef %23, ptr noundef %26)
  %28 = load ptr, ptr %3, align 8, !tbaa !91
  %29 = getelementptr inbounds nuw %struct.Extra_ImageTree2_t_, ptr %28, i32 0, i32 3
  store ptr %27, ptr %29, align 8, !tbaa !95
  %30 = load ptr, ptr %3, align 8, !tbaa !91
  %31 = getelementptr inbounds nuw %struct.Extra_ImageTree2_t_, ptr %30, i32 0, i32 3
  %32 = load ptr, ptr %31, align 8, !tbaa !95
  call void @Cudd_Ref(ptr noundef %32)
  %33 = load ptr, ptr %3, align 8, !tbaa !91
  %34 = getelementptr inbounds nuw %struct.Extra_ImageTree2_t_, ptr %33, i32 0, i32 3
  %35 = load ptr, ptr %34, align 8, !tbaa !95
  ret ptr %35
}

; Function Attrs: nounwind uwtable
define ptr @Extra_bddImageStart2(ptr noundef %0, ptr noundef %1, i32 noundef %2, ptr noundef %3, i32 noundef %4, ptr noundef %5, i32 noundef %6) #0 {
  %8 = alloca ptr, align 8
  %9 = alloca ptr, align 8
  %10 = alloca i32, align 4
  %11 = alloca ptr, align 8
  %12 = alloca i32, align 4
  %13 = alloca ptr, align 8
  %14 = alloca i32, align 4
  %15 = alloca ptr, align 8
  %16 = alloca ptr, align 8
  %17 = alloca ptr, align 8
  %18 = alloca ptr, align 8
  %19 = alloca i32, align 4
  store ptr %0, ptr %8, align 8, !tbaa !3
  store ptr %1, ptr %9, align 8, !tbaa !8
  store i32 %2, ptr %10, align 4, !tbaa !10
  store ptr %3, ptr %11, align 8, !tbaa !12
  store i32 %4, ptr %12, align 4, !tbaa !10
  store ptr %5, ptr %13, align 8, !tbaa !12
  store i32 %6, ptr %14, align 4, !tbaa !10
  call void @llvm.lifetime.start.p0(i64 8, ptr %15) #6
  call void @llvm.lifetime.start.p0(i64 8, ptr %16) #6
  call void @llvm.lifetime.start.p0(i64 8, ptr %17) #6
  call void @llvm.lifetime.start.p0(i64 8, ptr %18) #6
  call void @llvm.lifetime.start.p0(i64 4, ptr %19) #6
  %20 = call noalias ptr @malloc(i64 noundef 32) #7
  store ptr %20, ptr %15, align 8, !tbaa !91
  %21 = load ptr, ptr %8, align 8, !tbaa !3
  %22 = load ptr, ptr %15, align 8, !tbaa !91
  %23 = getelementptr inbounds nuw %struct.Extra_ImageTree2_t_, ptr %22, i32 0, i32 0
  store ptr %21, ptr %23, align 8, !tbaa !93
  %24 = load ptr, ptr %15, align 8, !tbaa !91
  %25 = getelementptr inbounds nuw %struct.Extra_ImageTree2_t_, ptr %24, i32 0, i32 3
  store ptr null, ptr %25, align 8, !tbaa !95
  %26 = load ptr, ptr %8, align 8, !tbaa !3
  %27 = load ptr, ptr %8, align 8, !tbaa !3
  %28 = getelementptr inbounds nuw %struct.DdManager, ptr %27, i32 0, i32 41
  %29 = load ptr, ptr %28, align 8, !tbaa !68
  %30 = load ptr, ptr %8, align 8, !tbaa !3
  %31 = getelementptr inbounds nuw %struct.DdManager, ptr %30, i32 0, i32 15
  %32 = load i32, ptr %31, align 8, !tbaa !14
  %33 = call ptr @Extra_bddComputeCube(ptr noundef %26, ptr noundef %29, i32 noundef %32)
  store ptr %33, ptr %16, align 8, !tbaa !8
  %34 = load ptr, ptr %16, align 8, !tbaa !8
  call void @Cudd_Ref(ptr noundef %34)
  %35 = load ptr, ptr %8, align 8, !tbaa !3
  %36 = load ptr, ptr %13, align 8, !tbaa !12
  %37 = load i32, ptr %12, align 4, !tbaa !10
  %38 = call ptr @Extra_bddComputeCube(ptr noundef %35, ptr noundef %36, i32 noundef %37)
  store ptr %38, ptr %17, align 8, !tbaa !8
  %39 = load ptr, ptr %17, align 8, !tbaa !8
  call void @Cudd_Ref(ptr noundef %39)
  %40 = load ptr, ptr %8, align 8, !tbaa !3
  %41 = load ptr, ptr %16, align 8, !tbaa !8
  %42 = load ptr, ptr %17, align 8, !tbaa !8
  %43 = call ptr @Cudd_bddExistAbstract(ptr noundef %40, ptr noundef %41, ptr noundef %42)
  %44 = load ptr, ptr %15, align 8, !tbaa !91
  %45 = getelementptr inbounds nuw %struct.Extra_ImageTree2_t_, ptr %44, i32 0, i32 2
  store ptr %43, ptr %45, align 8, !tbaa !96
  %46 = load ptr, ptr %15, align 8, !tbaa !91
  %47 = getelementptr inbounds nuw %struct.Extra_ImageTree2_t_, ptr %46, i32 0, i32 2
  %48 = load ptr, ptr %47, align 8, !tbaa !96
  call void @Cudd_Ref(ptr noundef %48)
  %49 = load ptr, ptr %8, align 8, !tbaa !3
  %50 = load ptr, ptr %16, align 8, !tbaa !8
  call void @Cudd_RecursiveDeref(ptr noundef %49, ptr noundef %50)
  %51 = load ptr, ptr %8, align 8, !tbaa !3
  %52 = load ptr, ptr %17, align 8, !tbaa !8
  call void @Cudd_RecursiveDeref(ptr noundef %51, ptr noundef %52)
  %53 = load ptr, ptr %8, align 8, !tbaa !3
  %54 = getelementptr inbounds nuw %struct.DdManager, ptr %53, i32 0, i32 1
  %55 = load ptr, ptr %54, align 8, !tbaa !62
  %56 = load ptr, ptr %15, align 8, !tbaa !91
  %57 = getelementptr inbounds nuw %struct.Extra_ImageTree2_t_, ptr %56, i32 0, i32 1
  store ptr %55, ptr %57, align 8, !tbaa !97
  %58 = load ptr, ptr %15, align 8, !tbaa !91
  %59 = getelementptr inbounds nuw %struct.Extra_ImageTree2_t_, ptr %58, i32 0, i32 1
  %60 = load ptr, ptr %59, align 8, !tbaa !97
  call void @Cudd_Ref(ptr noundef %60)
  store i32 0, ptr %19, align 4, !tbaa !10
  br label %61

61:                                               ; preds = %83, %7
  %62 = load i32, ptr %19, align 4, !tbaa !10
  %63 = load i32, ptr %10, align 4, !tbaa !10
  %64 = icmp slt i32 %62, %63
  br i1 %64, label %65, label %86

65:                                               ; preds = %61
  %66 = load ptr, ptr %8, align 8, !tbaa !3
  %67 = load ptr, ptr %15, align 8, !tbaa !91
  %68 = getelementptr inbounds nuw %struct.Extra_ImageTree2_t_, ptr %67, i32 0, i32 1
  %69 = load ptr, ptr %68, align 8, !tbaa !97
  store ptr %69, ptr %18, align 8, !tbaa !8
  %70 = load ptr, ptr %11, align 8, !tbaa !12
  %71 = load i32, ptr %19, align 4, !tbaa !10
  %72 = sext i32 %71 to i64
  %73 = getelementptr inbounds ptr, ptr %70, i64 %72
  %74 = load ptr, ptr %73, align 8, !tbaa !8
  %75 = call ptr @Cudd_bddAnd(ptr noundef %66, ptr noundef %69, ptr noundef %74)
  %76 = load ptr, ptr %15, align 8, !tbaa !91
  %77 = getelementptr inbounds nuw %struct.Extra_ImageTree2_t_, ptr %76, i32 0, i32 1
  store ptr %75, ptr %77, align 8, !tbaa !97
  %78 = load ptr, ptr %15, align 8, !tbaa !91
  %79 = getelementptr inbounds nuw %struct.Extra_ImageTree2_t_, ptr %78, i32 0, i32 1
  %80 = load ptr, ptr %79, align 8, !tbaa !97
  call void @Cudd_Ref(ptr noundef %80)
  %81 = load ptr, ptr %8, align 8, !tbaa !3
  %82 = load ptr, ptr %18, align 8, !tbaa !8
  call void @Cudd_RecursiveDeref(ptr noundef %81, ptr noundef %82)
  br label %83

83:                                               ; preds = %65
  %84 = load i32, ptr %19, align 4, !tbaa !10
  %85 = add nsw i32 %84, 1
  store i32 %85, ptr %19, align 4, !tbaa !10
  br label %61, !llvm.loop !98

86:                                               ; preds = %61
  %87 = load ptr, ptr %15, align 8, !tbaa !91
  %88 = load ptr, ptr %9, align 8, !tbaa !8
  %89 = call ptr @Extra_bddImageCompute2(ptr noundef %87, ptr noundef %88)
  %90 = load ptr, ptr %15, align 8, !tbaa !91
  call void @llvm.lifetime.end.p0(i64 4, ptr %19) #6
  call void @llvm.lifetime.end.p0(i64 8, ptr %18) #6
  call void @llvm.lifetime.end.p0(i64 8, ptr %17) #6
  call void @llvm.lifetime.end.p0(i64 8, ptr %16) #6
  call void @llvm.lifetime.end.p0(i64 8, ptr %15) #6
  ret ptr %90
}