; Function Attrs: nounwind uwtable
define noalias noundef ptr @Extra_bddImageStart2(ptr noundef %0, ptr noundef %1, i32 noundef %2, ptr noundef readonly captures(none) %3, i32 noundef %4, ptr noundef %5, i32 noundef %6) local_unnamed_addr #0 {
  %8 = tail call noalias dereferenceable_or_null(32) ptr @malloc(i64 noundef 32) #11
  store ptr %0, ptr %8, align 8, !tbaa !79
  %9 = getelementptr inbounds nuw i8, ptr %0, i64 344
  %10 = load ptr, ptr %9, align 8, !tbaa !45
  %11 = getelementptr inbounds nuw i8, ptr %0, i64 136
  %12 = load i32, ptr %11, align 8, !tbaa !3
  %13 = tail call ptr @Extra_bddComputeCube(ptr noundef %0, ptr noundef %10, i32 noundef %12) #10
  tail call void @Cudd_Ref(ptr noundef %13) #10
  %14 = tail call ptr @Extra_bddComputeCube(ptr noundef %0, ptr noundef %5, i32 noundef %4) #10
  tail call void @Cudd_Ref(ptr noundef %14) #10
  %15 = tail call ptr @Cudd_bddExistAbstract(ptr noundef %0, ptr noundef %13, ptr noundef %14) #10
  %16 = getelementptr inbounds nuw i8, ptr %8, i64 16
  store ptr %15, ptr %16, align 8, !tbaa !81
  tail call void @Cudd_Ref(ptr noundef %15) #10
  tail call void @Cudd_RecursiveDeref(ptr noundef %0, ptr noundef %13) #10
  tail call void @Cudd_RecursiveDeref(ptr noundef %0, ptr noundef %14) #10
  %17 = getelementptr inbounds nuw i8, ptr %0, i64 40
  %18 = load ptr, ptr %17, align 8, !tbaa !39
  %19 = getelementptr inbounds nuw i8, ptr %8, i64 8
  store ptr %18, ptr %19, align 8, !tbaa !82
  tail call void @Cudd_Ref(ptr noundef %18) #10
  %20 = icmp sgt i32 %2, 0
  br i1 %20, label %.lr.ph, label %Extra_bddImageCompute2.exit

.lr.ph:                                           ; preds = %7
  %wide.trip.count = zext nneg i32 %2 to i64
  br label %21

21:                                               ; preds = %.lr.ph, %21
  %indvars.iv = phi i64 [ 0, %.lr.ph ], [ %indvars.iv.next, %21 ]
  %22 = phi ptr [ %18, %.lr.ph ], [ %25, %21 ]
  %23 = getelementptr inbounds nuw ptr, ptr %3, i64 %indvars.iv
  %24 = load ptr, ptr %23, align 8, !tbaa !26
  %25 = tail call ptr @Cudd_bddAnd(ptr noundef %0, ptr noundef %22, ptr noundef %24) #10
  tail call void @Cudd_Ref(ptr noundef %25) #10
  tail call void @Cudd_RecursiveDeref(ptr noundef %0, ptr noundef %22) #10
  %indvars.iv.next = add nuw nsw i64 %indvars.iv, 1
  %exitcond.not = icmp eq i64 %indvars.iv.next, %wide.trip.count
  br i1 %exitcond.not, label %.Extra_bddImageCompute2.exit_crit_edge, label %21, !llvm.loop !83

.Extra_bddImageCompute2.exit_crit_edge:           ; preds = %21
  store ptr %25, ptr %19, align 8
  br label %Extra_bddImageCompute2.exit

Extra_bddImageCompute2.exit:                      ; preds = %.Extra_bddImageCompute2.exit_crit_edge, %7
  %26 = phi ptr [ %25, %.Extra_bddImageCompute2.exit_crit_edge ], [ %18, %7 ]
  %27 = getelementptr inbounds nuw i8, ptr %8, i64 24
  %28 = tail call ptr @Cudd_bddAndAbstract(ptr noundef %0, ptr noundef %26, ptr noundef %1, ptr noundef %15) #10
  store ptr %28, ptr %27, align 8, !tbaa !84
  tail call void @Cudd_Ref(ptr noundef %28) #10
  ret ptr %8
}